; Function Attrs: mustprogress nounwind uwtable
define hidden void @_ZN2cv10ExrDecoder5closeEv(ptr nocapture noundef nonnull align 8 dereferenceable(376) %0) local_unnamed_addr #4 align 2 {
  %2 = getelementptr inbounds i8, ptr %0, i64 272
  %3 = load ptr, ptr %2, align 8
  %.not = icmp eq ptr %3, null
  br i1 %.not, label %8, label %4

4:                                                ; preds = %1
  %5 = load ptr, ptr %3, align 8
  %6 = getelementptr inbounds i8, ptr %5, i64 8
  %7 = load ptr, ptr %6, align 8
  tail call void %7(ptr noundef nonnull align 8 dereferenceable(16) %3) #23
  store ptr null, ptr %2, align 8
  br label %8

8:                                                ; preds = %4, %1
  ret void
}